; Function Attrs: mustprogress uwtable
define noundef i64 @_ZNK7rocksdb22TestFSRandomAccessFile11GetUniqueIdEPcm(ptr nocapture noundef nonnull readonly align 8 dereferenceable(24) %this, ptr noundef %id, i64 noundef %max_size) unnamed_addr #2 align 2 personality ptr @__gxx_personality_v0 {
entry:
  %fs_ = getelementptr inbounds i8, ptr %this, i64 16
  %0 = load ptr, ptr %fs_, align 8
  %mutex_.i = getelementptr inbounds i8, ptr %0, i64 48
  tail call void @_ZN7rocksdb4port5Mutex4LockEv(ptr noundef nonnull align 8 dereferenceable(40) %mutex_.i)
  %fail_get_file_unique_id_.i = getelementptr inbounds i8, ptr %0, i64 370
  %1 = load i8, ptr %fail_get_file_unique_id_.i, align 2
  invoke void @_ZN7rocksdb4port5Mutex6UnlockEv(ptr noundef nonnull align 8 dereferenceable(40) %mutex_.i)
          to label %_ZN7rocksdb20FaultInjectionTestFS21ShouldFailGetUniqueIdEv.exit unwind label %terminate.lpad.i.i

terminate.lpad.i.i:                               ; preds = %entry
  %2 = landingpad { ptr, i32 }
          catch ptr null
  %3 = extractvalue { ptr, i32 } %2, 0
  tail call void @__clang_call_terminate(ptr %3) #23
  unreachable

_ZN7rocksdb20FaultInjectionTestFS21ShouldFailGetUniqueIdEv.exit: ; preds = %entry
  %4 = and i8 %1, 1
  %tobool.i.not = icmp eq i8 %4, 0
  br i1 %tobool.i.not, label %if.else, label %return

if.else:                                          ; preds = %_ZN7rocksdb20FaultInjectionTestFS21ShouldFailGetUniqueIdEv.exit
  %target_ = getelementptr inbounds i8, ptr %this, i64 8
  %5 = load ptr, ptr %target_, align 8
  %vtable = load ptr, ptr %5, align 8
  %vfn = getelementptr inbounds i8, ptr %vtable, i64 40
  %6 = load ptr, ptr %vfn, align 8
  %call3 = tail call noundef i64 %6(ptr noundef nonnull align 8 dereferenceable(8) %5, ptr noundef %id, i64 noundef %max_size)
  br label %return

return:                                           ; preds = %_ZN7rocksdb20FaultInjectionTestFS21ShouldFailGetUniqueIdEv.exit, %if.else
  %retval.0 = phi i64 [ %call3, %if.else ], [ 0, %_ZN7rocksdb20FaultInjectionTestFS21ShouldFailGetUniqueIdEv.exit ]
  ret i64 %retval.0
}